target datalayout = "e-m:e-p270:32:32-p271:32:32-p272:64:64-i64:64-i128:128-f80:128-n8:16:32:64-S128"
target triple = "x86_64-pc-linux-gnu"

; Function Attrs: mustprogress nounwind uwtable
define noundef i32 @_Z9sffn2effnPPKc(ptr noundef %0) #0 {
  %2 = alloca ptr, align 8
  %3 = alloca i32, align 4
  %4 = alloca i32, align 4
  store ptr %0, ptr %2, align 8, !tbaa !11
  call void @llvm.lifetime.start.p0(i64 4, ptr %3) #14
  call void @llvm.lifetime.start.p0(i64 4, ptr %4) #14
  store i32 0, ptr %3, align 4, !tbaa !4
  store i32 0, ptr %4, align 4, !tbaa !4
  br label %5

5:                                                ; preds = %31, %1
  %6 = load i32, ptr %4, align 4, !tbaa !4
  %7 = icmp slt i32 %6, 11
  br i1 %7, label %8, label %34

8:                                                ; preds = %5
  %9 = load ptr, ptr %2, align 8, !tbaa !11
  %10 = load i32, ptr %4, align 4, !tbaa !4
  %11 = add nsw i32 %10, 1
  %12 = sext i32 %11 to i64
  %13 = getelementptr inbounds ptr, ptr %9, i64 %12
  %14 = load ptr, ptr %13, align 8, !tbaa !8
  %15 = icmp ne ptr %14, null
  br i1 %15, label %16, label %30

16:                                               ; preds = %8
  %17 = load ptr, ptr %2, align 8, !tbaa !11
  %18 = getelementptr inbounds ptr, ptr %17, i64 0
  %19 = load ptr, ptr %18, align 8, !tbaa !8
  %20 = load ptr, ptr %2, align 8, !tbaa !11
  %21 = load i32, ptr %4, align 4, !tbaa !4
  %22 = add nsw i32 %21, 1
  %23 = sext i32 %22 to i64
  %24 = getelementptr inbounds ptr, ptr %20, i64 %23
  %25 = load ptr, ptr %24, align 8, !tbaa !8
  %26 = call i32 @strcmp(ptr noundef %19, ptr noundef %25) #15
  %27 = icmp eq i32 %26, 0
  br i1 %27, label %28, label %30

28:                                               ; preds = %16
  %29 = load i32, ptr %4, align 4, !tbaa !4
  store i32 %29, ptr %3, align 4, !tbaa !4
  br label %30

30:                                               ; preds = %28, %16, %8
  br label %31

31:                                               ; preds = %30
  %32 = load i32, ptr %4, align 4, !tbaa !4
  %33 = add nsw i32 %32, 1
  store i32 %33, ptr %4, align 4, !tbaa !4
  br label %5, !llvm.loop !14

34:                                               ; preds = %5
  %35 = load i32, ptr %3, align 4, !tbaa !4
  call void @llvm.lifetime.end.p0(i64 4, ptr %4) #14
  call void @llvm.lifetime.end.p0(i64 4, ptr %3) #14
  ret i32 %35
}