; Function Attrs: mustprogress nofree nounwind willreturn memory(read, inaccessiblemem: none) uwtable
define noundef i32 @_Z9sffn2effnPPKc(ptr noundef readonly captures(none) %0) local_unnamed_addr #1 {
  br label %2

2:                                                ; preds = %1, %10
  %indvars.iv = phi i64 [ 0, %1 ], [ %indvars.iv.next, %10 ]
  %.0810 = phi i32 [ 0, %1 ], [ %.1, %10 ]
  %indvars.iv.next = add nuw nsw i64 %indvars.iv, 1
  %3 = getelementptr inbounds nuw ptr, ptr %0, i64 %indvars.iv.next
  %4 = load ptr, ptr %3, align 8, !tbaa !8
  %.not = icmp eq ptr %4, null
  br i1 %.not, label %10, label %5

5:                                                ; preds = %2
  %6 = load ptr, ptr %0, align 8, !tbaa !8
  %7 = tail call i32 @strcmp(ptr noundef nonnull dereferenceable(1) %6, ptr noundef nonnull dereferenceable(1) %4) #17
  %8 = icmp eq i32 %7, 0
  %9 = trunc nuw nsw i64 %indvars.iv to i32
  %spec.select = select i1 %8, i32 %9, i32 %.0810
  br label %10

10:                                               ; preds = %5, %2
  %.1 = phi i32 [ %.0810, %2 ], [ %spec.select, %5 ]
  %exitcond.not = icmp eq i64 %indvars.iv.next, 11
  br i1 %exitcond.not, label %11, label %2, !llvm.loop !11

11:                                               ; preds = %10
  ret i32 %.1
}